target datalayout = "e-m:e-p270:32:32-p271:32:32-p272:64:64-i64:64-i128:128-f80:128-n8:16:32:64-S128"
target triple = "x86_64-pc-linux-gnu"

%struct._srt_stat_table = type { ptr, ptr, ptr, i32, ptr, ptr, ptr }
%struct._srt_procedure_t = type { i32, %struct._timestat_t, ptr }
%struct._timestat_t = type { i32, i32, i32, %struct.nstime_t, %struct.nstime_t, %struct.nstime_t, double }
%struct.nstime_t = type { i64, i32 }
%struct._GArray = type { ptr, i32 }

; Function Attrs: null_pointer_is_valid sspstrong uwtable
define ptr @init_srt_table(ptr noundef %0, ptr noundef %1, ptr noundef %2, i32 noundef %3, ptr noundef %4, ptr noundef %5, ptr noundef %6) #1 {
  %8 = alloca ptr, align 8
  %9 = alloca ptr, align 8
  %10 = alloca ptr, align 8
  %11 = alloca i32, align 4
  %12 = alloca ptr, align 8
  %13 = alloca ptr, align 8
  %14 = alloca ptr, align 8
  %15 = alloca i32, align 4
  %16 = alloca ptr, align 8
  %17 = alloca i64, align 8
  %18 = alloca i64, align 8
  %19 = alloca ptr, align 8
  %20 = alloca ptr, align 8
  %21 = alloca i64, align 8
  %22 = alloca i64, align 8
  %23 = alloca ptr, align 8
  %24 = alloca ptr, align 8
  store ptr %0, ptr %8, align 8
  store ptr %1, ptr %9, align 8
  store ptr %2, ptr %10, align 8
  store i32 %3, ptr %11, align 4
  store ptr %4, ptr %12, align 8
  store ptr %5, ptr %13, align 8
  store ptr %6, ptr %14, align 8
  call void @llvm.lifetime.start.p0(i64 4, ptr %15) #11
  call void @llvm.lifetime.start.p0(i64 8, ptr %16) #11
  call void @llvm.lifetime.start.p0(i64 8, ptr %17) #11
  store i64 1, ptr %17, align 8
  call void @llvm.lifetime.start.p0(i64 8, ptr %18) #11
  store i64 56, ptr %18, align 8
  call void @llvm.lifetime.start.p0(i64 8, ptr %19) #11
  %25 = load i64, ptr %18, align 8
  %26 = icmp eq i64 %25, 1
  br i1 %26, label %27, label %30

27:                                               ; preds = %7
  %28 = load i64, ptr %17, align 8
  %29 = call noalias ptr @g_malloc(i64 noundef %28) #15
  store ptr %29, ptr %19, align 8
  br label %51

30:                                               ; preds = %7
  %31 = load i64, ptr %17, align 8
  %32 = call i1 @llvm.is.constant.i64(i64 %31)
  br i1 %32, label %33, label %46

33:                                               ; preds = %30
  %34 = load i64, ptr %18, align 8
  %35 = icmp eq i64 %34, 0
  br i1 %35, label %41, label %36

36:                                               ; preds = %33
  %37 = load i64, ptr %17, align 8
  %38 = load i64, ptr %18, align 8
  %39 = udiv i64 -1, %38
  %40 = icmp ule i64 %37, %39
  br i1 %40, label %41, label %46

41:                                               ; preds = %36, %33
  %42 = load i64, ptr %17, align 8
  %43 = load i64, ptr %18, align 8
  %44 = mul i64 %42, %43
  %45 = call noalias ptr @g_malloc(i64 noundef %44) #15
  store ptr %45, ptr %19, align 8
  br label %50

46:                                               ; preds = %36, %30
  %47 = load i64, ptr %17, align 8
  %48 = load i64, ptr %18, align 8
  %49 = call noalias ptr @g_malloc_n(i64 noundef %47, i64 noundef %48) #16
  store ptr %49, ptr %19, align 8
  br label %50

50:                                               ; preds = %46, %41
  br label %51

51:                                               ; preds = %50, %27
  %52 = load ptr, ptr %19, align 8
  store ptr %52, ptr %20, align 8
  call void @llvm.lifetime.end.p0(i64 8, ptr %19) #11
  call void @llvm.lifetime.end.p0(i64 8, ptr %18) #11
  call void @llvm.lifetime.end.p0(i64 8, ptr %17) #11
  %53 = load ptr, ptr %20, align 8
  store ptr %53, ptr %16, align 8
  %54 = load ptr, ptr %13, align 8
  %55 = call noalias ptr @g_strdup(ptr noundef %54)
  %56 = load ptr, ptr %16, align 8
  %57 = getelementptr inbounds nuw %struct._srt_stat_table, ptr %56, i32 0, i32 2
  store ptr %55, ptr %57, align 8
  %58 = load ptr, ptr %8, align 8
  %59 = load ptr, ptr %16, align 8
  %60 = getelementptr inbounds nuw %struct._srt_stat_table, ptr %59, i32 0, i32 0
  store ptr %58, ptr %60, align 8
  %61 = load ptr, ptr %9, align 8
  %62 = load ptr, ptr %16, align 8
  %63 = getelementptr inbounds nuw %struct._srt_stat_table, ptr %62, i32 0, i32 1
  store ptr %61, ptr %63, align 8
  %64 = load ptr, ptr %12, align 8
  %65 = load ptr, ptr %16, align 8
  %66 = getelementptr inbounds nuw %struct._srt_stat_table, ptr %65, i32 0, i32 4
  store ptr %64, ptr %66, align 8
  %67 = load i32, ptr %11, align 4
  %68 = load ptr, ptr %16, align 8
  %69 = getelementptr inbounds nuw %struct._srt_stat_table, ptr %68, i32 0, i32 3
  store i32 %67, ptr %69, align 8
  call void @llvm.lifetime.start.p0(i64 8, ptr %21) #11
  %70 = load i32, ptr %11, align 4
  %71 = sext i32 %70 to i64
  store i64 %71, ptr %21, align 8
  call void @llvm.lifetime.start.p0(i64 8, ptr %22) #11
  store i64 88, ptr %22, align 8
  call void @llvm.lifetime.start.p0(i64 8, ptr %23) #11
  %72 = load i64, ptr %22, align 8
  %73 = icmp eq i64 %72, 1
  br i1 %73, label %74, label %77

74:                                               ; preds = %51
  %75 = load i64, ptr %21, align 8
  %76 = call noalias ptr @g_malloc(i64 noundef %75) #15
  store ptr %76, ptr %23, align 8
  br label %98

77:                                               ; preds = %51
  %78 = load i64, ptr %21, align 8
  %79 = call i1 @llvm.is.constant.i64(i64 %78)
  br i1 %79, label %80, label %93

80:                                               ; preds = %77
  %81 = load i64, ptr %22, align 8
  %82 = icmp eq i64 %81, 0
  br i1 %82, label %88, label %83

83:                                               ; preds = %80
  %84 = load i64, ptr %21, align 8
  %85 = load i64, ptr %22, align 8
  %86 = udiv i64 -1, %85
  %87 = icmp ule i64 %84, %86
  br i1 %87, label %88, label %93

88:                                               ; preds = %83, %80
  %89 = load i64, ptr %21, align 8
  %90 = load i64, ptr %22, align 8
  %91 = mul i64 %89, %90
  %92 = call noalias ptr @g_malloc(i64 noundef %91) #15
  store ptr %92, ptr %23, align 8
  br label %97

93:                                               ; preds = %83, %77
  %94 = load i64, ptr %21, align 8
  %95 = load i64, ptr %22, align 8
  %96 = call noalias ptr @g_malloc_n(i64 noundef %94, i64 noundef %95) #16
  store ptr %96, ptr %23, align 8
  br label %97

97:                                               ; preds = %93, %88
  br label %98

98:                                               ; preds = %97, %74
  %99 = load ptr, ptr %23, align 8
  store ptr %99, ptr %24, align 8
  call void @llvm.lifetime.end.p0(i64 8, ptr %23) #11
  call void @llvm.lifetime.end.p0(i64 8, ptr %22) #11
  call void @llvm.lifetime.end.p0(i64 8, ptr %21) #11
  %100 = load ptr, ptr %24, align 8
  %101 = load ptr, ptr %16, align 8
  %102 = getelementptr inbounds nuw %struct._srt_stat_table, ptr %101, i32 0, i32 5
  store ptr %100, ptr %102, align 8
  store i32 0, ptr %15, align 4
  br label %103

103:                                              ; preds = %129, %98
  %104 = load i32, ptr %15, align 4
  %105 = load i32, ptr %11, align 4
  %106 = icmp slt i32 %104, %105
  br i1 %106, label %107, label %132

107:                                              ; preds = %103
  %108 = load ptr, ptr %16, align 8
  %109 = getelementptr inbounds nuw %struct._srt_stat_table, ptr %108, i32 0, i32 5
  %110 = load ptr, ptr %109, align 8
  %111 = load i32, ptr %15, align 4
  %112 = sext i32 %111 to i64
  %113 = getelementptr %struct._srt_procedure_t, ptr %110, i64 %112
  %114 = getelementptr inbounds nuw %struct._srt_procedure_t, ptr %113, i32 0, i32 1
  call void @time_stat_init(ptr noundef %114)
  %115 = load ptr, ptr %16, align 8
  %116 = getelementptr inbounds nuw %struct._srt_stat_table, ptr %115, i32 0, i32 5
  %117 = load ptr, ptr %116, align 8
  %118 = load i32, ptr %15, align 4
  %119 = sext i32 %118 to i64
  %120 = getelementptr %struct._srt_procedure_t, ptr %117, i64 %119
  %121 = getelementptr inbounds nuw %struct._srt_procedure_t, ptr %120, i32 0, i32 0
  store i32 0, ptr %121, align 8
  %122 = load ptr, ptr %16, align 8
  %123 = getelementptr inbounds nuw %struct._srt_stat_table, ptr %122, i32 0, i32 5
  %124 = load ptr, ptr %123, align 8
  %125 = load i32, ptr %15, align 4
  %126 = sext i32 %125 to i64
  %127 = getelementptr %struct._srt_procedure_t, ptr %124, i64 %126
  %128 = getelementptr inbounds nuw %struct._srt_procedure_t, ptr %127, i32 0, i32 2
  store ptr null, ptr %128, align 8
  br label %129

129:                                              ; preds = %107
  %130 = load i32, ptr %15, align 4
  %131 = add i32 %130, 1
  store i32 %131, ptr %15, align 4
  br label %103, !llvm.loop !11

132:                                              ; preds = %103
  %133 = load ptr, ptr %10, align 8
  %134 = load ptr, ptr %10, align 8
  %135 = getelementptr inbounds nuw %struct._GArray, ptr %134, i32 0, i32 1
  %136 = load i32, ptr %135, align 8
  %137 = call ptr @g_array_insert_vals(ptr noundef %133, i32 noundef %136, ptr noundef %16, i32 noundef 1)
  %138 = load ptr, ptr %14, align 8
  %139 = load ptr, ptr %16, align 8
  %140 = getelementptr inbounds nuw %struct._srt_stat_table, ptr %139, i32 0, i32 6
  store ptr %138, ptr %140, align 8
  %141 = load ptr, ptr %16, align 8
  call void @llvm.lifetime.end.p0(i64 8, ptr %16) #11
  call void @llvm.lifetime.end.p0(i64 4, ptr %15) #11
  ret ptr %141
}