; Function Attrs: null_pointer_is_valid sspstrong uwtable
define ptr @init_srt_table(ptr noundef %0, ptr noundef %1, ptr noundef %2, i32 noundef %3, ptr noundef %4, ptr noundef %5, ptr noundef %6) local_unnamed_addr #2 {
  %8 = alloca ptr, align 8
  call void @llvm.lifetime.start.p0(i64 8, ptr nonnull %8) #14
  %9 = tail call noalias dereferenceable_or_null(56) ptr @g_malloc(i64 noundef 56) #15
  store ptr %9, ptr %8, align 8
  %10 = tail call noalias ptr @g_strdup(ptr noundef %5)
  %11 = getelementptr inbounds nuw i8, ptr %9, i64 16
  store ptr %10, ptr %11, align 8
  store ptr %0, ptr %9, align 8
  %12 = getelementptr inbounds nuw i8, ptr %9, i64 8
  store ptr %1, ptr %12, align 8
  %13 = getelementptr inbounds nuw i8, ptr %9, i64 32
  store ptr %4, ptr %13, align 8
  %14 = getelementptr inbounds nuw i8, ptr %9, i64 24
  store i32 %3, ptr %14, align 8
  %15 = sext i32 %3 to i64
  %16 = tail call noalias ptr @g_malloc_n(i64 noundef %15, i64 noundef 88) #16
  %17 = getelementptr inbounds nuw i8, ptr %9, i64 40
  store ptr %16, ptr %17, align 8
  %18 = icmp sgt i32 %3, 0
  br i1 %18, label %.lr.ph.preheader, label %._crit_edge

.lr.ph.preheader:                                 ; preds = %7
  %wide.trip.count = zext nneg i32 %3 to i64
  br label %.lr.ph

.lr.ph:                                           ; preds = %.lr.ph.preheader, %.lr.ph
  %indvars.iv = phi i64 [ 0, %.lr.ph.preheader ], [ %indvars.iv.next, %.lr.ph ]
  %19 = load ptr, ptr %17, align 8
  %20 = getelementptr %struct._srt_procedure_t, ptr %19, i64 %indvars.iv, i32 1
  tail call void @time_stat_init(ptr noundef %20)
  %21 = load ptr, ptr %17, align 8
  %22 = getelementptr %struct._srt_procedure_t, ptr %21, i64 %indvars.iv
  store i32 0, ptr %22, align 8
  %23 = load ptr, ptr %17, align 8
  %24 = getelementptr %struct._srt_procedure_t, ptr %23, i64 %indvars.iv, i32 2
  store ptr null, ptr %24, align 8
  %indvars.iv.next = add nuw nsw i64 %indvars.iv, 1
  %exitcond.not = icmp eq i64 %indvars.iv.next, %wide.trip.count
  br i1 %exitcond.not, label %._crit_edge, label %.lr.ph, !llvm.loop !11

._crit_edge:                                      ; preds = %.lr.ph, %7
  %25 = getelementptr inbounds nuw i8, ptr %2, i64 8
  %26 = load i32, ptr %25, align 8
  %27 = call ptr @g_array_insert_vals(ptr noundef %2, i32 noundef %26, ptr noundef nonnull %8, i32 noundef 1)
  %28 = load ptr, ptr %8, align 8
  %29 = getelementptr inbounds nuw i8, ptr %28, i64 48
  store ptr %6, ptr %29, align 8
  call void @llvm.lifetime.end.p0(i64 8, ptr nonnull %8) #14
  ret ptr %28
}